; ModuleID = '31/1535.c'
source_filename = "31/1535.c"
target datalayout = "e-m:e-p270:32:32-p271:32:32-p272:64:64-i64:64-f80:128-n8:16:32:64-S128"
target triple = "x86_64-pc-linux-gnu"

%struct.student = type { [1000 x i8], %struct.student*, %struct.student* }

@.str = private unnamed_addr constant [4 x i8] c"end\00", align 1
@.str.1 = private unnamed_addr constant [4 x i8] c"%s\0A\00", align 1

; Function Attrs: noinline nounwind uwtable
define dso_local void @main() #0 {
  %1 = alloca %struct.student*, align 8
  %2 = alloca %struct.student*, align 8
  %3 = alloca %struct.student*, align 8
  %4 = alloca %struct.student*, align 8
  %5 = alloca i32, align 4
  %6 = alloca [1000 x i8], align 16
  store i32 0, i32* %5, align 4
  store %struct.student* null, %struct.student** %2, align 8
  store %struct.student* null, %struct.student** %1, align 8
  br label %7

7:                                                ; preds = %38, %0
  %8 = getelementptr inbounds [1000 x i8], [1000 x i8]* %6, i64 0, i64 0
  %9 = call i32 (i8*, ...) bitcast (i32 (...)* @gets to i32 (i8*, ...)*)(i8* %8)
  %10 = getelementptr inbounds [1000 x i8], [1000 x i8]* %6, i64 0, i64 0
  %11 = call i32 @strcmp(i8* %10, i8* getelementptr inbounds ([4 x i8], [4 x i8]* @.str, i64 0, i64 0)) #4
  %12 = icmp ne i32 %11, 0
  br i1 %12, label %13, label %40

13:                                               ; preds = %7
  %14 = load i32, i32* %5, align 4
  %15 = add nsw i32 %14, 1
  store i32 %15, i32* %5, align 4
  %16 = call noalias i8* @malloc(i64 1016) #5
  %17 = bitcast i8* %16 to %struct.student*
  store %struct.student* %17, %struct.student** %1, align 8
  %18 = load %struct.student*, %struct.student** %1, align 8
  %19 = getelementptr inbounds %struct.student, %struct.student* %18, i32 0, i32 1
  store %struct.student* null, %struct.student** %19, align 8
  %20 = load %struct.student*, %struct.student** %1, align 8
  %21 = getelementptr inbounds %struct.student, %struct.student* %20, i32 0, i32 2
  store %struct.student* null, %struct.student** %21, align 8
  store %struct.student* null, %struct.student** %3, align 8
  %22 = load %struct.student*, %struct.student** %1, align 8
  %23 = getelementptr inbounds %struct.student, %struct.student* %22, i32 0, i32 0
  %24 = getelementptr inbounds [1000 x i8], [1000 x i8]* %23, i64 0, i64 0
  %25 = getelementptr inbounds [1000 x i8], [1000 x i8]* %6, i64 0, i64 0
  %26 = call i8* @strcpy(i8* %24, i8* %25) #5
  %27 = load i32, i32* %5, align 4
  %28 = icmp eq i32 %27, 1
  br i1 %28, label %29, label %31

29:                                               ; preds = %13
  %30 = load %struct.student*, %struct.student** %1, align 8
  store %struct.student* %30, %struct.student** %3, align 8
  br label %38

31:                                               ; preds = %13
  %32 = load %struct.student*, %struct.student** %1, align 8
  %33 = load %struct.student*, %struct.student** %2, align 8
  %34 = getelementptr inbounds %struct.student, %struct.student* %33, i32 0, i32 2
  store %struct.student* %32, %struct.student** %34, align 8
  %35 = load %struct.student*, %struct.student** %2, align 8
  %36 = load %struct.student*, %struct.student** %1, align 8
  %37 = getelementptr inbounds %struct.student, %struct.student* %36, i32 0, i32 1
  store %struct.student* %35, %struct.student** %37, align 8
  br label %38

38:                                               ; preds = %31, %29
  %39 = load %struct.student*, %struct.student** %1, align 8
  store %struct.student* %39, %struct.student** %2, align 8
  br label %7

40:                                               ; preds = %7
  %41 = load %struct.student*, %struct.student** %2, align 8
  store %struct.student* %41, %struct.student** %4, align 8
  br label %42

42:                                               ; preds = %45, %40
  %43 = load %struct.student*, %struct.student** %2, align 8
  %44 = icmp ne %struct.student* %43, null
  br i1 %44, label %45, label %53

45:                                               ; preds = %42
  %46 = load %struct.student*, %struct.student** %2, align 8
  %47 = getelementptr inbounds %struct.student, %struct.student* %46, i32 0, i32 0
  %48 = getelementptr inbounds [1000 x i8], [1000 x i8]* %47, i64 0, i64 0
  %49 = call i32 (i8*, ...) @printf(i8* getelementptr inbounds ([4 x i8], [4 x i8]* @.str.1, i64 0, i64 0), i8* %48)
  %50 = load %struct.student*, %struct.student** %2, align 8
  %51 = getelementptr inbounds %struct.student, %struct.student* %50, i32 0, i32 1
  %52 = load %struct.student*, %struct.student** %51, align 8
  store %struct.student* %52, %struct.student** %2, align 8
  br label %42

53:                                               ; preds = %42
  ret void
}

declare dso_local i32 @gets(...) #1

; Function Attrs: nounwind readonly
declare dso_local i32 @strcmp(i8*, i8*) #2

; Function Attrs: nounwind
declare dso_local noalias i8* @malloc(i64) #3

; Function Attrs: nounwind
declare dso_local i8* @strcpy(i8*, i8*) #3

declare dso_local i32 @printf(i8*, ...) #1


!llvm.module.flags = !{!0}
!llvm.ident = !{!1}

!0 = !{i32 1, !"wchar_size", i32 4}
!1 = !{!"clang version 10.0.0-4ubuntu1 "}
